target datalayout = "e-m:e-p270:32:32-p271:32:32-p272:64:64-i64:64-i128:128-f80:128-n8:16:32:64-S128"
target triple = "x86_64-pc-linux-gnu"

%struct._clusterNode = type { i64, [40 x i8], [40 x i8], i32, i64, [2048 x i8], ptr, i32, i32, i32, ptr, ptr, i64, i64, i64, i64, i64, i64, i64, i64, i64, [46 x i8], ptr, ptr, i32, i32, i32, ptr, ptr, ptr }
%struct.clusterLink = type { i64, ptr, ptr, i64, i64, ptr, i64, i64, ptr, i32 }
%struct.connection = type { ptr, i32, i32, i32, i16, i16, i16, ptr, ptr, ptr, ptr, ptr }

@.str.18 = private unnamed_addr constant [17 x i8] c"cluster_legacy.c\00", align 1
@.str.169 = private unnamed_addr constant [10 x i8] c"direction\00", align 1
@.str.170 = private unnamed_addr constant [5 x i8] c"from\00", align 1
@.str.171 = private unnamed_addr constant [3 x i8] c"to\00", align 1
@.str.172 = private unnamed_addr constant [11 x i8] c"link->node\00", align 1
@.str.173 = private unnamed_addr constant [5 x i8] c"node\00", align 1
@.str.174 = private unnamed_addr constant [12 x i8] c"create-time\00", align 1
@.str.175 = private unnamed_addr constant [7 x i8] c"events\00", align 1
@.str.176 = private unnamed_addr constant [22 x i8] c"send-buffer-allocated\00", align 1
@.str.177 = private unnamed_addr constant [17 x i8] c"send-buffer-used\00", align 1

; Function Attrs: inlinehint nounwind uwtable
define internal i32 @connHasWriteHandler(ptr noundef %0) #5 {
  %2 = alloca ptr, align 8
  store ptr %0, ptr %2, align 8, !tbaa !165
  %3 = load ptr, ptr %2, align 8, !tbaa !165
  %4 = getelementptr inbounds nuw %struct.connection, ptr %3, i32 0, i32 10
  %5 = load ptr, ptr %4, align 8, !tbaa !336
  %6 = icmp ne ptr %5, null
  %7 = zext i1 %6 to i32
  ret i32 %7
}

; Function Attrs: inlinehint nounwind uwtable
define internal i32 @connHasReadHandler(ptr noundef %0) #5 {
  %2 = alloca ptr, align 8
  store ptr %0, ptr %2, align 8, !tbaa !165
  %3 = load ptr, ptr %2, align 8, !tbaa !165
  %4 = getelementptr inbounds nuw %struct.connection, ptr %3, i32 0, i32 11
  %5 = load ptr, ptr %4, align 8, !tbaa !335
  %6 = icmp ne ptr %5, null
  %7 = zext i1 %6 to i32
  ret i32 %7
}

; Function Attrs: nounwind uwtable
define dso_local void @addReplyClusterLinkDescription(ptr noundef %0, ptr noundef %1) #0 {
  %3 = alloca ptr, align 8
  %4 = alloca ptr, align 8
  %5 = alloca ptr, align 8
  %6 = alloca [3 x i8], align 1
  %7 = alloca ptr, align 8
  store ptr %0, ptr %3, align 8, !tbaa !119
  store ptr %1, ptr %4, align 8, !tbaa !172
  %8 = load ptr, ptr %3, align 8, !tbaa !119
  call void @addReplyMapLen(ptr noundef %8, i64 noundef 6)
  %9 = load ptr, ptr %3, align 8, !tbaa !119
  call void @addReplyBulkCString(ptr noundef %9, ptr noundef @.str.169)
  %10 = load ptr, ptr %3, align 8, !tbaa !119
  %11 = load ptr, ptr %4, align 8, !tbaa !172
  %12 = getelementptr inbounds nuw %struct.clusterLink, ptr %11, i32 0, i32 9
  %13 = load i32, ptr %12, align 8, !tbaa !184
  %14 = icmp ne i32 %13, 0
  %15 = select i1 %14, ptr @.str.170, ptr @.str.171
  call void @addReplyBulkCString(ptr noundef %10, ptr noundef %15)
  %16 = load ptr, ptr %4, align 8, !tbaa !172
  %17 = getelementptr inbounds nuw %struct.clusterLink, ptr %16, i32 0, i32 8
  %18 = load ptr, ptr %17, align 8, !tbaa !183
  %19 = icmp ne ptr %18, null
  %20 = xor i1 %19, true
  %21 = xor i1 %20, true
  %22 = zext i1 %21 to i32
  %23 = sext i32 %22 to i64
  %24 = call i64 @llvm.expect.i64(i64 %23, i64 1)
  %25 = icmp ne i64 %24, 0
  br i1 %25, label %26, label %27

26:                                               ; preds = %2
  br label %29

27:                                               ; preds = %2
  call void @_serverAssert(ptr noundef @.str.172, ptr noundef @.str.18, i32 noundef 5517)
  call void @abort() #18
  unreachable

28:                                               ; No predecessors!
  br label %29

29:                                               ; preds = %28, %26
  call void @llvm.lifetime.start.p0(i64 8, ptr %5) #16
  %30 = load ptr, ptr %4, align 8, !tbaa !172
  %31 = getelementptr inbounds nuw %struct.clusterLink, ptr %30, i32 0, i32 8
  %32 = load ptr, ptr %31, align 8, !tbaa !183
  %33 = getelementptr inbounds nuw %struct._clusterNode, ptr %32, i32 0, i32 1
  %34 = getelementptr inbounds [40 x i8], ptr %33, i64 0, i64 0
  %35 = call ptr @sdsnewlen(ptr noundef %34, i64 noundef 40)
  store ptr %35, ptr %5, align 8, !tbaa !52
  %36 = load ptr, ptr %3, align 8, !tbaa !119
  call void @addReplyBulkCString(ptr noundef %36, ptr noundef @.str.173)
  %37 = load ptr, ptr %3, align 8, !tbaa !119
  %38 = load ptr, ptr %5, align 8, !tbaa !52
  call void @addReplyBulkCString(ptr noundef %37, ptr noundef %38)
  %39 = load ptr, ptr %5, align 8, !tbaa !52
  call void @sdsfree(ptr noundef %39)
  %40 = load ptr, ptr %3, align 8, !tbaa !119
  call void @addReplyBulkCString(ptr noundef %40, ptr noundef @.str.174)
  %41 = load ptr, ptr %3, align 8, !tbaa !119
  %42 = load ptr, ptr %4, align 8, !tbaa !172
  %43 = getelementptr inbounds nuw %struct.clusterLink, ptr %42, i32 0, i32 0
  %44 = load i64, ptr %43, align 8, !tbaa !173
  call void @addReplyLongLong(ptr noundef %41, i64 noundef %44)
  call void @llvm.lifetime.start.p0(i64 3, ptr %6) #16
  call void @llvm.lifetime.start.p0(i64 8, ptr %7) #16
  %45 = getelementptr inbounds [3 x i8], ptr %6, i64 0, i64 0
  store ptr %45, ptr %7, align 8, !tbaa !52
  %46 = load ptr, ptr %4, align 8, !tbaa !172
  %47 = getelementptr inbounds nuw %struct.clusterLink, ptr %46, i32 0, i32 1
  %48 = load ptr, ptr %47, align 8, !tbaa !182
  %49 = icmp ne ptr %48, null
  br i1 %49, label %50, label %69

50:                                               ; preds = %29
  %51 = load ptr, ptr %4, align 8, !tbaa !172
  %52 = getelementptr inbounds nuw %struct.clusterLink, ptr %51, i32 0, i32 1
  %53 = load ptr, ptr %52, align 8, !tbaa !182
  %54 = call i32 @connHasReadHandler(ptr noundef %53)
  %55 = icmp ne i32 %54, 0
  br i1 %55, label %56, label %59

56:                                               ; preds = %50
  %57 = load ptr, ptr %7, align 8, !tbaa !52
  %58 = getelementptr inbounds nuw i8, ptr %57, i32 1
  store ptr %58, ptr %7, align 8, !tbaa !52
  store i8 114, ptr %57, align 1, !tbaa !54
  br label %59

59:                                               ; preds = %56, %50
  %60 = load ptr, ptr %4, align 8, !tbaa !172
  %61 = getelementptr inbounds nuw %struct.clusterLink, ptr %60, i32 0, i32 1
  %62 = load ptr, ptr %61, align 8, !tbaa !182
  %63 = call i32 @connHasWriteHandler(ptr noundef %62)
  %64 = icmp ne i32 %63, 0
  br i1 %64, label %65, label %68

65:                                               ; preds = %59
  %66 = load ptr, ptr %7, align 8, !tbaa !52
  %67 = getelementptr inbounds nuw i8, ptr %66, i32 1
  store ptr %67, ptr %7, align 8, !tbaa !52
  store i8 119, ptr %66, align 1, !tbaa !54
  br label %68

68:                                               ; preds = %65, %59
  br label %69

69:                                               ; preds = %68, %29
  %70 = load ptr, ptr %7, align 8, !tbaa !52
  store i8 0, ptr %70, align 1, !tbaa !54
  %71 = load ptr, ptr %3, align 8, !tbaa !119
  call void @addReplyBulkCString(ptr noundef %71, ptr noundef @.str.175)
  %72 = load ptr, ptr %3, align 8, !tbaa !119
  %73 = getelementptr inbounds [3 x i8], ptr %6, i64 0, i64 0
  call void @addReplyBulkCString(ptr noundef %72, ptr noundef %73)
  %74 = load ptr, ptr %3, align 8, !tbaa !119
  call void @addReplyBulkCString(ptr noundef %74, ptr noundef @.str.176)
  %75 = load ptr, ptr %3, align 8, !tbaa !119
  %76 = load ptr, ptr %4, align 8, !tbaa !172
  %77 = getelementptr inbounds nuw %struct.clusterLink, ptr %76, i32 0, i32 4
  %78 = load i64, ptr %77, align 8, !tbaa !177
  call void @addReplyLongLong(ptr noundef %75, i64 noundef %78)
  %79 = load ptr, ptr %3, align 8, !tbaa !119
  call void @addReplyBulkCString(ptr noundef %79, ptr noundef @.str.177)
  %80 = load ptr, ptr %3, align 8, !tbaa !119
  %81 = load ptr, ptr %4, align 8, !tbaa !172
  %82 = getelementptr inbounds nuw %struct.clusterLink, ptr %81, i32 0, i32 4
  %83 = load i64, ptr %82, align 8, !tbaa !177
  call void @addReplyLongLong(ptr noundef %80, i64 noundef %83)
  call void @llvm.lifetime.end.p0(i64 8, ptr %7) #16
  call void @llvm.lifetime.end.p0(i64 3, ptr %6) #16
  call void @llvm.lifetime.end.p0(i64 8, ptr %5) #16
  ret void
}