; Function Attrs: nounwind uwtable
define dso_local void @addReplyClusterLinkDescription(ptr noundef %0, ptr noundef readonly captures(none) %1) local_unnamed_addr #3 {
  %3 = alloca [3 x i8], align 1
  tail call void @addReplyMapLen(ptr noundef %0, i64 noundef 6) #33
  tail call void @addReplyBulkCString(ptr noundef %0, ptr noundef nonnull @.str.169) #33
  %4 = getelementptr inbounds nuw i8, ptr %1, i64 72
  %5 = load i32, ptr %4, align 8, !tbaa !163
  %.not = icmp eq i32 %5, 0
  %6 = select i1 %.not, ptr @.str.171, ptr @.str.170
  tail call void @addReplyBulkCString(ptr noundef %0, ptr noundef nonnull %6) #33
  %7 = getelementptr inbounds nuw i8, ptr %1, i64 64
  %8 = load ptr, ptr %7, align 8, !tbaa !162
  %.not29 = icmp eq ptr %8, null
  br i1 %.not29, label %9, label %10, !prof !90

9:                                                ; preds = %2
  tail call void @_serverAssert(ptr noundef nonnull @.str.172, ptr noundef nonnull @.str.18, i32 noundef 5517) #33
  tail call void @abort() #35
  unreachable

10:                                               ; preds = %2
  %11 = getelementptr inbounds nuw i8, ptr %8, i64 8
  %12 = tail call ptr @sdsnewlen(ptr noundef nonnull %11, i64 noundef 40) #33
  tail call void @addReplyBulkCString(ptr noundef %0, ptr noundef nonnull @.str.173) #33
  tail call void @addReplyBulkCString(ptr noundef %0, ptr noundef %12) #33
  tail call void @sdsfree(ptr noundef %12) #33
  tail call void @addReplyBulkCString(ptr noundef %0, ptr noundef nonnull @.str.174) #33
  %13 = load i64, ptr %1, align 8, !tbaa !152
  tail call void @addReplyLongLong(ptr noundef %0, i64 noundef %13) #33
  call void @llvm.lifetime.start.p0(i64 3, ptr nonnull %3) #33
  %14 = getelementptr inbounds nuw i8, ptr %1, i64 8
  %15 = load ptr, ptr %14, align 8, !tbaa !161
  %.not30 = icmp eq ptr %15, null
  br i1 %.not30, label %24, label %16

16:                                               ; preds = %10
  %17 = getelementptr i8, ptr %15, i64 64
  %.val = load ptr, ptr %17, align 8, !tbaa !301
  %.not34 = icmp eq ptr %.val, null
  br i1 %.not34, label %20, label %18

18:                                               ; preds = %16
  %19 = getelementptr inbounds nuw i8, ptr %3, i64 1
  store i8 114, ptr %3, align 1, !tbaa !50
  br label %20

20:                                               ; preds = %18, %16
  %.1 = phi ptr [ %19, %18 ], [ %3, %16 ]
  %21 = getelementptr i8, ptr %15, i64 56
  %.val33 = load ptr, ptr %21, align 8, !tbaa !302
  %.not35 = icmp eq ptr %.val33, null
  br i1 %.not35, label %24, label %22

22:                                               ; preds = %20
  %23 = getelementptr inbounds nuw i8, ptr %.1, i64 1
  store i8 119, ptr %.1, align 1, !tbaa !50
  br label %24

24:                                               ; preds = %20, %22, %10
  %.0 = phi ptr [ %23, %22 ], [ %.1, %20 ], [ %3, %10 ]
  store i8 0, ptr %.0, align 1, !tbaa !50
  tail call void @addReplyBulkCString(ptr noundef %0, ptr noundef nonnull @.str.175) #33
  call void @addReplyBulkCString(ptr noundef %0, ptr noundef nonnull %3) #33
  call void @addReplyBulkCString(ptr noundef %0, ptr noundef nonnull @.str.176) #33
  %25 = getelementptr inbounds nuw i8, ptr %1, i64 32
  %26 = load i64, ptr %25, align 8, !tbaa !156
  call void @addReplyLongLong(ptr noundef %0, i64 noundef %26) #33
  call void @addReplyBulkCString(ptr noundef %0, ptr noundef nonnull @.str.177) #33
  %27 = load i64, ptr %25, align 8, !tbaa !156
  call void @addReplyLongLong(ptr noundef %0, i64 noundef %27) #33
  call void @llvm.lifetime.end.p0(i64 3, ptr nonnull %3) #33
  ret void
}